; Function Attrs: nofree norecurse nosync nounwind memory(readwrite, inaccessiblemem: none) uwtable
define void @Aig_ManCleanCioIds(ptr noundef readonly captures(none) %0) local_unnamed_addr #0 {
  %2 = getelementptr inbounds nuw i8, ptr %0, i64 16
  %3 = load ptr, ptr %2, align 8, !tbaa !53
  %4 = getelementptr i8, ptr %3, i64 4
  %.val1316 = load i32, ptr %4, align 4, !tbaa !22
  %5 = icmp sgt i32 %.val1316, 0
  br i1 %5, label %.lr.ph, label %.critedge.preheader

.critedge.preheader:                              ; preds = %.lr.ph, %1
  %6 = getelementptr inbounds nuw i8, ptr %0, i64 24
  %7 = load ptr, ptr %6, align 8, !tbaa !31
  %8 = getelementptr i8, ptr %7, i64 4
  %.val18 = load i32, ptr %8, align 4, !tbaa !22
  %9 = icmp sgt i32 %.val18, 0
  br i1 %9, label %.critedge, label %.critedge2

.lr.ph:                                           ; preds = %1, %.lr.ph
  %indvars.iv = phi i64 [ %indvars.iv.next, %.lr.ph ], [ 0, %1 ]
  %10 = phi ptr [ %14, %.lr.ph ], [ %3, %1 ]
  %11 = getelementptr i8, ptr %10, i64 8
  %.val15 = load ptr, ptr %11, align 8, !tbaa !24
  %12 = getelementptr inbounds nuw ptr, ptr %.val15, i64 %indvars.iv
  %13 = load ptr, ptr %12, align 8, !tbaa !25
  store ptr null, ptr %13, align 8, !tbaa !26
  %indvars.iv.next = add nuw nsw i64 %indvars.iv, 1
  %14 = load ptr, ptr %2, align 8, !tbaa !53
  %15 = getelementptr i8, ptr %14, i64 4
  %.val13 = load i32, ptr %15, align 4, !tbaa !22
  %16 = sext i32 %.val13 to i64
  %17 = icmp slt i64 %indvars.iv.next, %16
  br i1 %17, label %.lr.ph, label %.critedge.preheader, !llvm.loop !71

.critedge:                                        ; preds = %.critedge.preheader, %.critedge
  %indvars.iv23 = phi i64 [ %indvars.iv.next24, %.critedge ], [ 0, %.critedge.preheader ]
  %18 = phi ptr [ %22, %.critedge ], [ %7, %.critedge.preheader ]
  %19 = getelementptr i8, ptr %18, i64 8
  %.val14 = load ptr, ptr %19, align 8, !tbaa !24
  %20 = getelementptr inbounds nuw ptr, ptr %.val14, i64 %indvars.iv23
  %21 = load ptr, ptr %20, align 8, !tbaa !25
  store ptr null, ptr %21, align 8, !tbaa !26
  %indvars.iv.next24 = add nuw nsw i64 %indvars.iv23, 1
  %22 = load ptr, ptr %6, align 8, !tbaa !31
  %23 = getelementptr i8, ptr %22, i64 4
  %.val = load i32, ptr %23, align 4, !tbaa !22
  %24 = sext i32 %.val to i64
  %25 = icmp slt i64 %indvars.iv.next24, %24
  br i1 %25, label %.critedge, label %.critedge2, !llvm.loop !72

.critedge2:                                       ; preds = %.critedge, %.critedge.preheader
  ret void
}